; Function Attrs: nounwind uwtable
define internal range(i32 -12, 1) i32 @CR_Next_Choice(ptr noundef captures(none) %0) #0 {
  %2 = getelementptr inbounds nuw i8, ptr %0, i64 72
  %3 = load ptr, ptr %2, align 8, !tbaa !14
  tail call fastcc void @Synchronize_Buffer(ptr noundef %0)
  %4 = getelementptr inbounds nuw i8, ptr %3, i64 88
  %5 = load ptr, ptr %4, align 8, !tbaa !63
  %6 = getelementptr inbounds nuw i8, ptr %3, i64 96
  %7 = load ptr, ptr %6, align 8, !tbaa !64
  %8 = tail call fastcc zeroext i1 @Next_Choice(ptr noundef %5, ptr noundef %3, ptr noundef %7)
  %9 = select i1 %8, i32 0, i32 -12
  ret i32 %9
}